; Function Attrs: mustprogress uwtable
define hidden void @_ZN11opencv_onnx9TypeProto5ClearEv(ptr noundef nonnull align 8 dereferenceable(48) %0) unnamed_addr #3 align 2 personality ptr @__gxx_personality_v0 {
  %2 = getelementptr inbounds nuw i8, ptr %0, i64 16
  %3 = load i32, ptr %2, align 8, !tbaa !51
  %4 = and i32 %3, 1
  %.not = icmp eq i32 %4, 0
  br i1 %.not, label %13, label %5

5:                                                ; preds = %1
  %6 = getelementptr inbounds nuw i8, ptr %0, i64 24
  %7 = load ptr, ptr %6, align 8, !tbaa !41
  %8 = ptrtoint ptr %7 to i64
  %9 = and i64 %8, -2
  %10 = inttoptr i64 %9 to ptr
  %11 = getelementptr inbounds nuw i8, ptr %10, i64 8
  store i64 0, ptr %11, align 8, !tbaa !53
  %12 = load ptr, ptr %10, align 8, !tbaa !57
  store i8 0, ptr %12, align 1, !tbaa !46
  br label %13

13:                                               ; preds = %5, %1
  %14 = getelementptr inbounds nuw i8, ptr %0, i64 40
  %15 = load i32, ptr %14, align 8, !tbaa !51
  %cond.i = icmp eq i32 %15, 1
  br i1 %cond.i, label %16, label %_ZN11opencv_onnx9TypeProto11clear_valueEv.exit

16:                                               ; preds = %13
  %17 = getelementptr inbounds nuw i8, ptr %0, i64 8
  %18 = load i64, ptr %17, align 8, !tbaa !33
  %19 = and i64 %18, 1
  %.not.i.i = icmp eq i64 %19, 0
  %20 = and i64 %18, -4
  %21 = inttoptr i64 %20 to ptr
  br i1 %.not.i.i, label %_ZNK6google8protobuf11MessageLite21GetArenaForAllocationEv.exit.i, label %22, !prof !43

22:                                               ; preds = %16
  %23 = load ptr, ptr %21, align 8, !tbaa !44
  br label %_ZNK6google8protobuf11MessageLite21GetArenaForAllocationEv.exit.i

_ZNK6google8protobuf11MessageLite21GetArenaForAllocationEv.exit.i: ; preds = %22, %16
  %.0.i.i.i = phi ptr [ %23, %22 ], [ %21, %16 ]
  %24 = icmp eq ptr %.0.i.i.i, null
  br i1 %24, label %25, label %_ZN11opencv_onnx9TypeProto11clear_valueEv.exit

25:                                               ; preds = %_ZNK6google8protobuf11MessageLite21GetArenaForAllocationEv.exit.i
  %26 = getelementptr inbounds nuw i8, ptr %0, i64 32
  %27 = load ptr, ptr %26, align 8, !tbaa !46
  %28 = icmp eq ptr %27, null
  br i1 %28, label %_ZN11opencv_onnx9TypeProto11clear_valueEv.exit, label %29

29:                                               ; preds = %25
  tail call void @_ZN11opencv_onnx16TypeProto_TensorD2Ev(ptr noundef nonnull align 8 dereferenceable(40) %27) #22
  tail call void @_ZdlPv(ptr noundef nonnull %27) #23
  br label %_ZN11opencv_onnx9TypeProto11clear_valueEv.exit

_ZN11opencv_onnx9TypeProto11clear_valueEv.exit:   ; preds = %13, %_ZNK6google8protobuf11MessageLite21GetArenaForAllocationEv.exit.i, %25, %29
  store i32 0, ptr %14, align 8, !tbaa !51
  store i32 0, ptr %2, align 8
  %30 = getelementptr inbounds nuw i8, ptr %0, i64 8
  %31 = load i64, ptr %30, align 8, !tbaa !33
  %32 = and i64 %31, 1
  %.not1 = icmp eq i64 %32, 0
  br i1 %.not1, label %_ZN6google8protobuf8internal16InternalMetadata5ClearINS0_15UnknownFieldSetEEEvv.exit, label %33

33:                                               ; preds = %_ZN11opencv_onnx9TypeProto11clear_valueEv.exit
  tail call void @_ZN6google8protobuf8internal16InternalMetadata7DoClearINS0_15UnknownFieldSetEEEvv(ptr noundef nonnull align 8 dereferenceable(8) %30)
  br label %_ZN6google8protobuf8internal16InternalMetadata5ClearINS0_15UnknownFieldSetEEEvv.exit

_ZN6google8protobuf8internal16InternalMetadata5ClearINS0_15UnknownFieldSetEEEvv.exit: ; preds = %_ZN11opencv_onnx9TypeProto11clear_valueEv.exit, %33
  ret void
}